; ModuleID = '43/1427.c'
source_filename = "43/1427.c"
target datalayout = "e-m:e-p270:32:32-p271:32:32-p272:64:64-i64:64-f80:128-n8:16:32:64-S128"
target triple = "x86_64-pc-linux-gnu"

@.str = private unnamed_addr constant [3 x i8] c"%d\00", align 1
@.str.1 = private unnamed_addr constant [7 x i8] c"%d %d\0A\00", align 1

; Function Attrs: noinline nounwind uwtable
define dso_local i32 @main() #0 {
  %1 = alloca i32, align 4
  %2 = alloca i32, align 4
  %3 = alloca i32, align 4
  %4 = alloca i32, align 4
  %5 = alloca i32, align 4
  %6 = alloca float, align 4
  %7 = alloca float, align 4
  store i32 0, i32* %1, align 4
  %8 = call i32 (i8*, ...) @__isoc99_scanf(i8* getelementptr inbounds ([3 x i8], [3 x i8]* @.str, i64 0, i64 0), i32* %2)
  store i32 3, i32* %3, align 4
  br label %9

9:                                                ; preds = %75, %0
  %10 = load i32, i32* %3, align 4
  %11 = load i32, i32* %2, align 4
  %12 = sdiv i32 %11, 2
  %13 = icmp sle i32 %10, %12
  br i1 %13, label %14, label %80

14:                                               ; preds = %9
  %15 = load i32, i32* %3, align 4
  %16 = sitofp i32 %15 to double
  %17 = call double @sqrt(double %16) #3
  %18 = fptrunc double %17 to float
  store float %18, float* %6, align 4
  store i32 2, i32* %4, align 4
  br label %19

19:                                               ; preds = %31, %14
  %20 = load i32, i32* %4, align 4
  %21 = sitofp i32 %20 to float
  %22 = load float, float* %6, align 4
  %23 = fcmp ole float %21, %22
  br i1 %23, label %24, label %34

24:                                               ; preds = %19
  %25 = load i32, i32* %3, align 4
  %26 = load i32, i32* %4, align 4
  %27 = srem i32 %25, %26
  %28 = icmp eq i32 %27, 0
  br i1 %28, label %29, label %30

29:                                               ; preds = %24
  br label %34

30:                                               ; preds = %24
  br label %31

31:                                               ; preds = %30
  %32 = load i32, i32* %4, align 4
  %33 = add nsw i32 %32, 1
  store i32 %33, i32* %4, align 4
  br label %19

34:                                               ; preds = %29, %19
  %35 = load i32, i32* %2, align 4
  %36 = load i32, i32* %3, align 4
  %37 = sub nsw i32 %35, %36
  %38 = sitofp i32 %37 to double
  %39 = call double @sqrt(double %38) #3
  %40 = fptrunc double %39 to float
  store float %40, float* %7, align 4
  store i32 2, i32* %5, align 4
  br label %41

41:                                               ; preds = %55, %34
  %42 = load i32, i32* %5, align 4
  %43 = sitofp i32 %42 to float
  %44 = load float, float* %7, align 4
  %45 = fcmp ole float %43, %44
  br i1 %45, label %46, label %58

46:                                               ; preds = %41
  %47 = load i32, i32* %2, align 4
  %48 = load i32, i32* %3, align 4
  %49 = sub nsw i32 %47, %48
  %50 = load i32, i32* %5, align 4
  %51 = srem i32 %49, %50
  %52 = icmp eq i32 %51, 0
  br i1 %52, label %53, label %54

53:                                               ; preds = %46
  br label %58

54:                                               ; preds = %46
  br label %55

55:                                               ; preds = %54
  %56 = load i32, i32* %5, align 4
  %57 = add nsw i32 %56, 1
  store i32 %57, i32* %5, align 4
  br label %41

58:                                               ; preds = %53, %41
  %59 = load i32, i32* %4, align 4
  %60 = sitofp i32 %59 to float
  %61 = load float, float* %6, align 4
  %62 = fcmp ogt float %60, %61
  br i1 %62, label %63, label %74

63:                                               ; preds = %58
  %64 = load i32, i32* %5, align 4
  %65 = sitofp i32 %64 to float
  %66 = load float, float* %7, align 4
  %67 = fcmp ogt float %65, %66
  br i1 %67, label %68, label %74

68:                                               ; preds = %63
  %69 = load i32, i32* %3, align 4
  %70 = load i32, i32* %2, align 4
  %71 = load i32, i32* %3, align 4
  %72 = sub nsw i32 %70, %71
  %73 = call i32 (i8*, ...) @printf(i8* getelementptr inbounds ([7 x i8], [7 x i8]* @.str.1, i64 0, i64 0), i32 %69, i32 %72)
  br label %74

74:                                               ; preds = %68, %63, %58
  br label %75

75:                                               ; preds = %74
  %76 = load i32, i32* %3, align 4
  %77 = add nsw i32 %76, 1
  store i32 %77, i32* %3, align 4
  %78 = load i32, i32* %3, align 4
  %79 = add nsw i32 %78, 1
  store i32 %79, i32* %3, align 4
  br label %9

80:                                               ; preds = %9
  %81 = load i32, i32* %1, align 4
  ret i32 %81
}

declare dso_local i32 @__isoc99_scanf(i8*, ...) #1

; Function Attrs: nounwind
declare dso_local double @sqrt(double) #2

declare dso_local i32 @printf(i8*, ...) #1


!llvm.module.flags = !{!0}
!llvm.ident = !{!1}

!0 = !{i32 1, !"wchar_size", i32 4}
!1 = !{!"clang version 10.0.0-4ubuntu1 "}
